target datalayout = "e-m:e-p270:32:32-p271:32:32-p272:64:64-i64:64-i128:128-f80:128-n8:16:32:64-S128"
target triple = "x86_64-pc-linux-gnu"

%"struct.std::__detail::_Hash_node_base" = type { ptr }
%"struct.std::__detail::_Prime_rehash_policy" = type { float, i64 }
%"class.Eigen::Matrix" = type { %"class.Eigen::PlainObjectBase" }
%"class.Eigen::PlainObjectBase" = type { %"class.Eigen::DenseStorage" }
%"class.Eigen::DenseStorage" = type { %"struct.Eigen::internal::plain_array" }
%"struct.Eigen::internal::plain_array" = type { [3 x double] }
%"class.open3d::visualization::VisualizerWithVertexSelection" = type { %"class.open3d::visualization::Visualizer", %"class.std::shared_ptr.108", %"class.std::shared_ptr.111", i32, %"class.Eigen::Matrix.114", %"class.std::vector.124", float, %"class.std::shared_ptr.129", %"class.std::shared_ptr.132", %"class.std::shared_ptr", %"class.std::shared_ptr.135", %"class.open3d::visualization::RenderOption", %"class.std::shared_ptr.138", %"class.std::shared_ptr.135", %"class.std::unordered_map.141", %"class.std::unordered_map.141", %"class.std::shared_ptr.138", %"class.std::shared_ptr.135", %"class.std::function.155", %"class.std::function.155", %"class.std::function.155", [8 x i8] }
%"class.open3d::visualization::Visualizer" = type { ptr, ptr, %"class.std::__cxx11::basic_string", %"class.std::shared_ptr.18", %"class.Eigen::Matrix.21", %"class.Eigen::Matrix.21", %"class.std::function", %"class.std::function", %"struct.open3d::visualization::Visualizer::MouseControl", i8, i8, i32, i32, i32, i32, %"class.std::unique_ptr", %"class.std::unique_ptr.33", %"class.std::unordered_set", %"class.std::unordered_set.60", %"class.std::vector", %"class.std::vector.83", %"class.std::unordered_map.88", %"class.std::shared_ptr.102", %"class.std::shared_ptr.105" }
%"class.std::__cxx11::basic_string" = type { %"struct.std::__cxx11::basic_string<char>::_Alloc_hider", i64, %union.anon }
%"struct.std::__cxx11::basic_string<char>::_Alloc_hider" = type { ptr }
%union.anon = type { i64, [8 x i8] }
%"class.std::shared_ptr.18" = type { %"class.std::__shared_ptr.19" }
%"class.std::__shared_ptr.19" = type { ptr, %"class.std::__shared_count" }
%"class.std::__shared_count" = type { ptr }
%"class.Eigen::Matrix.21" = type { %"class.Eigen::PlainObjectBase.22" }
%"class.Eigen::PlainObjectBase.22" = type { %"class.Eigen::DenseStorage.29" }
%"class.Eigen::DenseStorage.29" = type { %"struct.Eigen::internal::plain_array.30" }
%"struct.Eigen::internal::plain_array.30" = type { [2 x i32] }
%"class.std::function" = type { %"class.std::_Function_base", ptr }
%"class.std::_Function_base" = type { %"union.std::_Any_data", ptr }
%"union.std::_Any_data" = type { %"union.std::_Nocopy_types" }
%"union.std::_Nocopy_types" = type { { i64, i64 } }
%"struct.open3d::visualization::Visualizer::MouseControl" = type { i8, i8, i8, i8, i8, i8, double, double }
%"class.std::unique_ptr" = type { %"struct.std::__uniq_ptr_data" }
%"struct.std::__uniq_ptr_data" = type { %"class.std::__uniq_ptr_impl" }
%"class.std::__uniq_ptr_impl" = type { %"class.std::tuple" }
%"class.std::tuple" = type { %"struct.std::_Tuple_impl" }
%"struct.std::_Tuple_impl" = type { %"struct.std::_Head_base.32" }
%"struct.std::_Head_base.32" = type { ptr }
%"class.std::unique_ptr.33" = type { %"struct.std::__uniq_ptr_data.34" }
%"struct.std::__uniq_ptr_data.34" = type { %"class.std::__uniq_ptr_impl.35" }
%"class.std::__uniq_ptr_impl.35" = type { %"class.std::tuple.36" }
%"class.std::tuple.36" = type { %"struct.std::_Tuple_impl.37" }
%"struct.std::_Tuple_impl.37" = type { %"struct.std::_Head_base.40" }
%"struct.std::_Head_base.40" = type { ptr }
%"class.std::unordered_set" = type { %"class.std::_Hashtable.41" }
%"class.std::_Hashtable.41" = type { ptr, i64, %"struct.std::__detail::_Hash_node_base", i64, %"struct.std::__detail::_Prime_rehash_policy", ptr }
%"class.std::unordered_set.60" = type { %"class.std::_Hashtable.61" }
%"class.std::_Hashtable.61" = type { ptr, i64, %"struct.std::__detail::_Hash_node_base", i64, %"struct.std::__detail::_Prime_rehash_policy", ptr }
%"class.std::vector" = type { %"struct.std::_Vector_base" }
%"struct.std::_Vector_base" = type { %"struct.std::_Vector_base<std::shared_ptr<const open3d::geometry::Geometry>, std::allocator<std::shared_ptr<const open3d::geometry::Geometry>>>::_Vector_impl" }
%"struct.std::_Vector_base<std::shared_ptr<const open3d::geometry::Geometry>, std::allocator<std::shared_ptr<const open3d::geometry::Geometry>>>::_Vector_impl" = type { %"struct.std::_Vector_base<std::shared_ptr<const open3d::geometry::Geometry>, std::allocator<std::shared_ptr<const open3d::geometry::Geometry>>>::_Vector_impl_data" }
%"struct.std::_Vector_base<std::shared_ptr<const open3d::geometry::Geometry>, std::allocator<std::shared_ptr<const open3d::geometry::Geometry>>>::_Vector_impl_data" = type { ptr, ptr, ptr }
%"class.std::vector.83" = type { %"struct.std::_Vector_base.84" }
%"struct.std::_Vector_base.84" = type { %"struct.std::_Vector_base<std::shared_ptr<open3d::visualization::glsl::GeometryRenderer>, std::allocator<std::shared_ptr<open3d::visualization::glsl::GeometryRenderer>>>::_Vector_impl" }
%"struct.std::_Vector_base<std::shared_ptr<open3d::visualization::glsl::GeometryRenderer>, std::allocator<std::shared_ptr<open3d::visualization::glsl::GeometryRenderer>>>::_Vector_impl" = type { %"struct.std::_Vector_base<std::shared_ptr<open3d::visualization::glsl::GeometryRenderer>, std::allocator<std::shared_ptr<open3d::visualization::glsl::GeometryRenderer>>>::_Vector_impl_data" }
%"struct.std::_Vector_base<std::shared_ptr<open3d::visualization::glsl::GeometryRenderer>, std::allocator<std::shared_ptr<open3d::visualization::glsl::GeometryRenderer>>>::_Vector_impl_data" = type { ptr, ptr, ptr }
%"class.std::unordered_map.88" = type { %"class.std::_Hashtable.89" }
%"class.std::_Hashtable.89" = type { ptr, i64, %"struct.std::__detail::_Hash_node_base", i64, %"struct.std::__detail::_Prime_rehash_policy", ptr }
%"class.std::shared_ptr.102" = type { %"class.std::__shared_ptr.103" }
%"class.std::__shared_ptr.103" = type { ptr, %"class.std::__shared_count" }
%"class.std::shared_ptr.105" = type { %"class.std::__shared_ptr.106" }
%"class.std::__shared_ptr.106" = type { ptr, %"class.std::__shared_count" }
%"class.std::shared_ptr.108" = type { %"class.std::__shared_ptr.109" }
%"class.std::__shared_ptr.109" = type { ptr, %"class.std::__shared_count" }
%"class.std::shared_ptr.111" = type { %"class.std::__shared_ptr.112" }
%"class.std::__shared_ptr.112" = type { ptr, %"class.std::__shared_count" }
%"class.Eigen::Matrix.114" = type { %"class.Eigen::PlainObjectBase.115" }
%"class.Eigen::PlainObjectBase.115" = type { %"class.Eigen::DenseStorage.122" }
%"class.Eigen::DenseStorage.122" = type { %"struct.Eigen::internal::plain_array.123" }
%"struct.Eigen::internal::plain_array.123" = type { [2 x double] }
%"class.std::vector.124" = type { %"struct.std::_Vector_base.125" }
%"struct.std::_Vector_base.125" = type { %"struct.std::_Vector_base<int, std::allocator<int>>::_Vector_impl" }
%"struct.std::_Vector_base<int, std::allocator<int>>::_Vector_impl" = type { %"struct.std::_Vector_base<int, std::allocator<int>>::_Vector_impl_data" }
%"struct.std::_Vector_base<int, std::allocator<int>>::_Vector_impl_data" = type { ptr, ptr, ptr }
%"class.std::shared_ptr.129" = type { %"class.std::__shared_ptr.130" }
%"class.std::__shared_ptr.130" = type { ptr, %"class.std::__shared_count" }
%"class.std::shared_ptr.132" = type { %"class.std::__shared_ptr.133" }
%"class.std::__shared_ptr.133" = type { ptr, %"class.std::__shared_count" }
%"class.std::shared_ptr" = type { %"class.std::__shared_ptr" }
%"class.std::__shared_ptr" = type { ptr, %"class.std::__shared_count" }
%"class.open3d::visualization::RenderOption" = type <{ %"class.open3d::utility::IJsonConvertible", double, double, double, double, double, double, double, double, %"class.Eigen::Matrix", i32, i32, i8, [7 x i8], [4 x %"class.Eigen::Matrix"], [4 x %"class.Eigen::Matrix"], %"class.Eigen::Matrix", [4 x double], [4 x double], [4 x double], double, i32, i8, [3 x i8], i32, i32, i8, i8, [6 x i8], %"class.Eigen::Matrix", double, i32, i32, i8, [7 x i8] }>
%"class.open3d::utility::IJsonConvertible" = type { ptr }
%"class.std::unordered_map.141" = type { %"class.std::_Hashtable.142" }
%"class.std::_Hashtable.142" = type { ptr, i64, %"struct.std::__detail::_Hash_node_base", i64, %"struct.std::__detail::_Prime_rehash_policy", ptr }
%"class.std::shared_ptr.138" = type { %"class.std::__shared_ptr.139" }
%"class.std::__shared_ptr.139" = type { ptr, %"class.std::__shared_count" }
%"class.std::shared_ptr.135" = type { %"class.std::__shared_ptr.136" }
%"class.std::__shared_ptr.136" = type { ptr, %"class.std::__shared_count" }
%"class.std::function.155" = type { %"class.std::_Function_base", ptr }

; Function Attrs: mustprogress nounwind ssp uwtable
define linkonce_odr void @_ZNSt12_Destroy_auxILb1EE9__destroyIPiEEvT_S3_(ptr noundef %0, ptr noundef %1) #0 comdat align 2 {
  %3 = alloca ptr, align 8
  %4 = alloca ptr, align 8
  store ptr %0, ptr %3, align 8, !tbaa !239
  store ptr %1, ptr %4, align 8, !tbaa !239
  ret void
}

; Function Attrs: inlinehint mustprogress ssp uwtable
define linkonce_odr void @_ZSt8_DestroyIPiEvT_S1_(ptr noundef %0, ptr noundef %1) #16 comdat {
  %3 = alloca ptr, align 8
  %4 = alloca ptr, align 8
  store ptr %0, ptr %3, align 8, !tbaa !239
  store ptr %1, ptr %4, align 8, !tbaa !239
  %5 = load ptr, ptr %3, align 8, !tbaa !239
  %6 = load ptr, ptr %4, align 8, !tbaa !239
  call void @_ZNSt12_Destroy_auxILb1EE9__destroyIPiEEvT_S3_(ptr noundef %5, ptr noundef %6)
  ret void
}

; Function Attrs: mustprogress nounwind ssp uwtable
define linkonce_odr noundef ptr @_ZNKSt12__shared_ptrIN6open3d13visualization4glsl24SelectionPolygonRendererELN9__gnu_cxx12_Lock_policyE2EE3getEv(ptr noundef nonnull align 8 dereferenceable(16) %0) #0 comdat align 2 {
  %2 = alloca ptr, align 8
  store ptr %0, ptr %2, align 8, !tbaa !1654
  %3 = load ptr, ptr %2, align 8
  %4 = getelementptr inbounds nuw %"class.std::__shared_ptr.112", ptr %3, i32 0, i32 0
  %5 = load ptr, ptr %4, align 8, !tbaa !1729
  ret ptr %5
}

; Function Attrs: mustprogress nounwind ssp uwtable
define linkonce_odr noundef ptr @_ZNKSt12__shared_ptrIN6open3d13visualization16SelectionPolygonELN9__gnu_cxx12_Lock_policyE2EE3getEv(ptr noundef nonnull align 8 dereferenceable(16) %0) #0 comdat align 2 {
  %2 = alloca ptr, align 8
  store ptr %0, ptr %2, align 8, !tbaa !1650
  %3 = load ptr, ptr %2, align 8
  %4 = getelementptr inbounds nuw %"class.std::__shared_ptr.109", ptr %3, i32 0, i32 0
  %5 = load ptr, ptr %4, align 8, !tbaa !1672
  ret ptr %5
}

; Function Attrs: noinline noreturn nounwind ssp uwtable
define linkonce_odr hidden void @__clang_call_terminate(ptr noundef %0) #14 comdat {
  %2 = call ptr @__cxa_begin_catch(ptr %0) #8
  call void @_ZSt9terminatev() #34
  unreachable
}

; Function Attrs: alwaysinline mustprogress ssp uwtable
define linkonce_odr void @_ZSt8_DestroyIPiiEvT_S1_RSaIT0_E(ptr noundef %0, ptr noundef %1, ptr noundef nonnull align 1 dereferenceable(1) %2) #10 comdat {
  %4 = alloca ptr, align 8
  %5 = alloca ptr, align 8
  %6 = alloca ptr, align 8
  store ptr %0, ptr %4, align 8, !tbaa !239
  store ptr %1, ptr %5, align 8, !tbaa !239
  store ptr %2, ptr %6, align 8, !tbaa !564
  %7 = load ptr, ptr %4, align 8, !tbaa !239
  %8 = load ptr, ptr %5, align 8, !tbaa !239
  call void @_ZSt8_DestroyIPiEvT_S1_(ptr noundef %7, ptr noundef %8)
  ret void
}

; Function Attrs: mustprogress nounwind ssp uwtable
define linkonce_odr noundef nonnull align 1 dereferenceable(1) ptr @_ZNSt12_Vector_baseIiSaIiEE19_M_get_Tp_allocatorEv(ptr noundef nonnull align 8 dereferenceable(24) %0) #0 comdat align 2 {
  %2 = alloca ptr, align 8
  store ptr %0, ptr %2, align 8, !tbaa !544
  %3 = load ptr, ptr %2, align 8
  %4 = getelementptr inbounds nuw %"struct.std::_Vector_base.125", ptr %3, i32 0, i32 0
  ret ptr %4
}

; Function Attrs: mustprogress nounwind ssp uwtable
define linkonce_odr noundef ptr @_ZNKSt19__shared_ptr_accessIN6open3d13visualization4glsl24SelectionPolygonRendererELN9__gnu_cxx12_Lock_policyE2ELb0ELb0EE6_M_getEv(ptr noundef nonnull align 1 dereferenceable(1) %0) #0 comdat align 2 {
  %2 = alloca ptr, align 8
  store ptr %0, ptr %2, align 8, !tbaa !1656
  %3 = load ptr, ptr %2, align 8
  %4 = call noundef ptr @_ZNKSt12__shared_ptrIN6open3d13visualization4glsl24SelectionPolygonRendererELN9__gnu_cxx12_Lock_policyE2EE3getEv(ptr noundef nonnull align 8 dereferenceable(16) %3) #8
  ret ptr %4
}

; Function Attrs: mustprogress nounwind ssp uwtable
define linkonce_odr noundef ptr @_ZNKSt19__shared_ptr_accessIN6open3d13visualization16SelectionPolygonELN9__gnu_cxx12_Lock_policyE2ELb0ELb0EE6_M_getEv(ptr noundef nonnull align 1 dereferenceable(1) %0) #0 comdat align 2 {
  %2 = alloca ptr, align 8
  store ptr %0, ptr %2, align 8, !tbaa !2150
  %3 = load ptr, ptr %2, align 8
  %4 = call noundef ptr @_ZNKSt12__shared_ptrIN6open3d13visualization16SelectionPolygonELN9__gnu_cxx12_Lock_policyE2EE3getEv(ptr noundef nonnull align 8 dereferenceable(16) %3) #8
  ret ptr %4
}

; Function Attrs: mustprogress nounwind ssp uwtable
define linkonce_odr void @_ZNSt6vectorIiSaIiEE15_M_erase_at_endEPi(ptr noundef nonnull align 8 dereferenceable(24) %0, ptr noundef %1) #0 comdat align 2 personality ptr @__gxx_personality_v0 {
  %3 = alloca ptr, align 8
  %4 = alloca ptr, align 8
  %5 = alloca i64, align 8
  store ptr %0, ptr %3, align 8, !tbaa !535
  store ptr %1, ptr %4, align 8, !tbaa !239
  %6 = load ptr, ptr %3, align 8
  call void @llvm.lifetime.start.p0(i64 8, ptr %5) #8
  %7 = getelementptr inbounds nuw %"struct.std::_Vector_base.125", ptr %6, i32 0, i32 0
  %8 = getelementptr inbounds nuw %"struct.std::_Vector_base<int, std::allocator<int>>::_Vector_impl_data", ptr %7, i32 0, i32 1
  %9 = load ptr, ptr %8, align 8, !tbaa !543
  %10 = load ptr, ptr %4, align 8, !tbaa !239
  %11 = ptrtoint ptr %9 to i64
  %12 = ptrtoint ptr %10 to i64
  %13 = sub i64 %11, %12
  %14 = sdiv exact i64 %13, 4
  store i64 %14, ptr %5, align 8, !tbaa !159
  %15 = load i64, ptr %5, align 8, !tbaa !159
  %16 = icmp ne i64 %15, 0
  br i1 %16, label %17, label %27

17:                                               ; preds = %2
  %18 = load ptr, ptr %4, align 8, !tbaa !239
  %19 = getelementptr inbounds nuw %"struct.std::_Vector_base.125", ptr %6, i32 0, i32 0
  %20 = getelementptr inbounds nuw %"struct.std::_Vector_base<int, std::allocator<int>>::_Vector_impl_data", ptr %19, i32 0, i32 1
  %21 = load ptr, ptr %20, align 8, !tbaa !543
  %22 = call noundef nonnull align 1 dereferenceable(1) ptr @_ZNSt12_Vector_baseIiSaIiEE19_M_get_Tp_allocatorEv(ptr noundef nonnull align 8 dereferenceable(24) %6) #8
  invoke void @_ZSt8_DestroyIPiiEvT_S1_RSaIT0_E(ptr noundef %18, ptr noundef %21, ptr noundef nonnull align 1 dereferenceable(1) %22)
          to label %23 unwind label %28

23:                                               ; preds = %17
  %24 = load ptr, ptr %4, align 8, !tbaa !239
  %25 = getelementptr inbounds nuw %"struct.std::_Vector_base.125", ptr %6, i32 0, i32 0
  %26 = getelementptr inbounds nuw %"struct.std::_Vector_base<int, std::allocator<int>>::_Vector_impl_data", ptr %25, i32 0, i32 1
  store ptr %24, ptr %26, align 8, !tbaa !543
  br label %27

27:                                               ; preds = %23, %2
  call void @llvm.lifetime.end.p0(i64 8, ptr %5) #8
  ret void

28:                                               ; preds = %17
  %29 = landingpad { ptr, i32 }
          catch ptr null
  %30 = extractvalue { ptr, i32 } %29, 0
  call void @__clang_call_terminate(ptr %30) #34
  unreachable
}

; Function Attrs: mustprogress nounwind ssp uwtable
define linkonce_odr noundef ptr @_ZNKSt19__shared_ptr_accessIN6open3d13visualization4glsl24SelectionPolygonRendererELN9__gnu_cxx12_Lock_policyE2ELb0ELb0EEptEv(ptr noundef nonnull align 1 dereferenceable(1) %0) #0 comdat align 2 {
  %2 = alloca ptr, align 8
  store ptr %0, ptr %2, align 8, !tbaa !1656
  %3 = load ptr, ptr %2, align 8
  %4 = call noundef ptr @_ZNKSt19__shared_ptr_accessIN6open3d13visualization4glsl24SelectionPolygonRendererELN9__gnu_cxx12_Lock_policyE2ELb0ELb0EE6_M_getEv(ptr noundef nonnull align 1 dereferenceable(1) %3) #8
  ret ptr %4
}

; Function Attrs: mustprogress nounwind ssp uwtable
define linkonce_odr noundef zeroext i1 @_ZNKSt12__shared_ptrIN6open3d13visualization4glsl24SelectionPolygonRendererELN9__gnu_cxx12_Lock_policyE2EEcvbEv(ptr noundef nonnull align 8 dereferenceable(16) %0) #0 comdat align 2 {
  %2 = alloca ptr, align 8
  store ptr %0, ptr %2, align 8, !tbaa !1654
  %3 = load ptr, ptr %2, align 8
  %4 = getelementptr inbounds nuw %"class.std::__shared_ptr.112", ptr %3, i32 0, i32 0
  %5 = load ptr, ptr %4, align 8, !tbaa !1729
  %6 = icmp ne ptr %5, null
  ret i1 %6
}

; Function Attrs: mustprogress nounwind ssp uwtable
define linkonce_odr noundef ptr @_ZNKSt19__shared_ptr_accessIN6open3d13visualization16SelectionPolygonELN9__gnu_cxx12_Lock_policyE2ELb0ELb0EEptEv(ptr noundef nonnull align 1 dereferenceable(1) %0) #0 comdat align 2 {
  %2 = alloca ptr, align 8
  store ptr %0, ptr %2, align 8, !tbaa !2150
  %3 = load ptr, ptr %2, align 8
  %4 = call noundef ptr @_ZNKSt19__shared_ptr_accessIN6open3d13visualization16SelectionPolygonELN9__gnu_cxx12_Lock_policyE2ELb0ELb0EE6_M_getEv(ptr noundef nonnull align 1 dereferenceable(1) %3) #8
  ret ptr %4
}

; Function Attrs: mustprogress nounwind ssp uwtable
define linkonce_odr noundef zeroext i1 @_ZNKSt12__shared_ptrIN6open3d13visualization16SelectionPolygonELN9__gnu_cxx12_Lock_policyE2EEcvbEv(ptr noundef nonnull align 8 dereferenceable(16) %0) #0 comdat align 2 {
  %2 = alloca ptr, align 8
  store ptr %0, ptr %2, align 8, !tbaa !1650
  %3 = load ptr, ptr %2, align 8
  %4 = getelementptr inbounds nuw %"class.std::__shared_ptr.109", ptr %3, i32 0, i32 0
  %5 = load ptr, ptr %4, align 8, !tbaa !1672
  %6 = icmp ne ptr %5, null
  ret i1 %6
}

; Function Attrs: mustprogress nounwind ssp uwtable
define linkonce_odr void @_ZNSt6vectorIiSaIiEE5clearEv(ptr noundef nonnull align 8 dereferenceable(24) %0) #0 comdat align 2 {
  %2 = alloca ptr, align 8
  store ptr %0, ptr %2, align 8, !tbaa !535
  %3 = load ptr, ptr %2, align 8
  %4 = getelementptr inbounds nuw %"struct.std::_Vector_base.125", ptr %3, i32 0, i32 0
  %5 = getelementptr inbounds nuw %"struct.std::_Vector_base<int, std::allocator<int>>::_Vector_impl_data", ptr %4, i32 0, i32 0
  %6 = load ptr, ptr %5, align 8, !tbaa !542
  call void @_ZNSt6vectorIiSaIiEE15_M_erase_at_endEPi(ptr noundef nonnull align 8 dereferenceable(24) %3, ptr noundef %6) #8
  ret void
}

; Function Attrs: mustprogress ssp uwtable
define void @_ZN6open3d13visualization29VisualizerWithVertexSelection26InvalidateSelectionPolygonEv(ptr noundef nonnull align 16 dereferenceable(1384) %0) #1 align 2 {
  %2 = alloca ptr, align 8
  store ptr %0, ptr %2, align 8, !tbaa !4
  %3 = load ptr, ptr %2, align 8
  %4 = getelementptr inbounds nuw %"class.open3d::visualization::VisualizerWithVertexSelection", ptr %3, i32 0, i32 5
  call void @_ZNSt6vectorIiSaIiEE5clearEv(ptr noundef nonnull align 8 dereferenceable(24) %4) #8
  %5 = getelementptr inbounds nuw %"class.open3d::visualization::VisualizerWithVertexSelection", ptr %3, i32 0, i32 1
  %6 = call noundef zeroext i1 @_ZNKSt12__shared_ptrIN6open3d13visualization16SelectionPolygonELN9__gnu_cxx12_Lock_policyE2EEcvbEv(ptr noundef nonnull align 8 dereferenceable(16) %5) #8
  br i1 %6, label %7, label %14

7:                                                ; preds = %1
  %8 = getelementptr inbounds nuw %"class.open3d::visualization::VisualizerWithVertexSelection", ptr %3, i32 0, i32 1
  %9 = call noundef ptr @_ZNKSt19__shared_ptr_accessIN6open3d13visualization16SelectionPolygonELN9__gnu_cxx12_Lock_policyE2ELb0ELb0EEptEv(ptr noundef nonnull align 1 dereferenceable(1) %8) #8
  %10 = load ptr, ptr %9, align 8, !tbaa !9
  %11 = getelementptr inbounds ptr, ptr %10, i64 2
  %12 = load ptr, ptr %11, align 8
  %13 = call noundef nonnull align 8 dereferenceable(172) ptr %12(ptr noundef nonnull align 8 dereferenceable(172) %9)
  br label %14

14:                                               ; preds = %7, %1
  %15 = getelementptr inbounds nuw %"class.open3d::visualization::VisualizerWithVertexSelection", ptr %3, i32 0, i32 2
  %16 = call noundef zeroext i1 @_ZNKSt12__shared_ptrIN6open3d13visualization4glsl24SelectionPolygonRendererELN9__gnu_cxx12_Lock_policyE2EEcvbEv(ptr noundef nonnull align 8 dereferenceable(16) %15) #8
  br i1 %16, label %17, label %24

17:                                               ; preds = %14
  %18 = getelementptr inbounds nuw %"class.open3d::visualization::VisualizerWithVertexSelection", ptr %3, i32 0, i32 2
  %19 = call noundef ptr @_ZNKSt19__shared_ptr_accessIN6open3d13visualization4glsl24SelectionPolygonRendererELN9__gnu_cxx12_Lock_policyE2ELb0ELb0EEptEv(ptr noundef nonnull align 1 dereferenceable(1) %18) #8
  %20 = load ptr, ptr %19, align 8, !tbaa !9
  %21 = getelementptr inbounds ptr, ptr %20, i64 4
  %22 = load ptr, ptr %21, align 8
  %23 = call noundef zeroext i1 %22(ptr noundef nonnull align 8 dereferenceable(240) %19)
  br label %24

24:                                               ; preds = %17, %14
  %25 = getelementptr inbounds nuw %"class.open3d::visualization::VisualizerWithVertexSelection", ptr %3, i32 0, i32 3
  store i32 0, ptr %25, align 8, !tbaa !101
  ret void
}