; Function Attrs: mustprogress ssp uwtable
define void @_ZN6open3d13visualization29VisualizerWithVertexSelection26InvalidateSelectionPolygonEv(ptr noundef nonnull align 16 captures(none) dereferenceable(1384) initializes((488, 492)) %0) local_unnamed_addr #1 align 2 personality ptr @__gxx_personality_v0 {
  %2 = getelementptr inbounds nuw i8, ptr %0, i64 512
  %3 = load ptr, ptr %2, align 16, !tbaa !35
  %4 = getelementptr inbounds nuw i8, ptr %0, i64 520
  %5 = load ptr, ptr %4, align 8, !tbaa !243
  %.not.i.i = icmp eq ptr %5, %3
  br i1 %.not.i.i, label %_ZNSt6vectorIiSaIiEE5clearEv.exit, label %_ZSt8_DestroyIPiiEvT_S1_RSaIT0_E.exit.i.i

_ZSt8_DestroyIPiiEvT_S1_RSaIT0_E.exit.i.i:        ; preds = %1
  store ptr %3, ptr %4, align 8, !tbaa !243
  br label %_ZNSt6vectorIiSaIiEE5clearEv.exit

_ZNSt6vectorIiSaIiEE5clearEv.exit:                ; preds = %1, %_ZSt8_DestroyIPiiEvT_S1_RSaIT0_E.exit.i.i
  %6 = getelementptr inbounds nuw i8, ptr %0, i64 456
  %7 = load ptr, ptr %6, align 8, !tbaa !205
  %.not = icmp eq ptr %7, null
  br i1 %.not, label %13, label %8

8:                                                ; preds = %_ZNSt6vectorIiSaIiEE5clearEv.exit
  %9 = load ptr, ptr %7, align 8, !tbaa !4
  %10 = getelementptr inbounds nuw i8, ptr %9, i64 16
  %11 = load ptr, ptr %10, align 8
  %12 = tail call noundef nonnull align 8 dereferenceable(172) ptr %11(ptr noundef nonnull align 8 dereferenceable(172) %7)
  br label %13

13:                                               ; preds = %8, %_ZNSt6vectorIiSaIiEE5clearEv.exit
  %14 = getelementptr inbounds nuw i8, ptr %0, i64 472
  %15 = load ptr, ptr %14, align 8, !tbaa !203
  %.not1 = icmp eq ptr %15, null
  br i1 %.not1, label %21, label %16

16:                                               ; preds = %13
  %17 = load ptr, ptr %15, align 8, !tbaa !4
  %18 = getelementptr inbounds nuw i8, ptr %17, i64 32
  %19 = load ptr, ptr %18, align 8
  %20 = tail call noundef zeroext i1 %19(ptr noundef nonnull align 8 dereferenceable(240) %15)
  br label %21

21:                                               ; preds = %16, %13
  %22 = getelementptr inbounds nuw i8, ptr %0, i64 488
  store i32 0, ptr %22, align 8, !tbaa !244
  ret void
}